target datalayout = "e-m:e-p270:32:32-p271:32:32-p272:64:64-i64:64-i128:128-f80:128-n8:16:32:64-S128"
target triple = "x86_64-unknown-linux-gnu"

%"class.std::set.0" = type { %"class.std::_Rb_tree.1" }
%"class.std::_Rb_tree.1" = type { %"struct.std::_Rb_tree<QuantLib::Observer *, QuantLib::Observer *, std::_Identity<QuantLib::Observer *>, std::less<QuantLib::Observer *>>::_Rb_tree_impl" }
%"struct.std::_Rb_tree<QuantLib::Observer *, QuantLib::Observer *, std::_Identity<QuantLib::Observer *>, std::less<QuantLib::Observer *>>::_Rb_tree_impl" = type { [8 x i8], %"struct.std::_Rb_tree_header" }
%"struct.std::_Rb_tree_header" = type { %"struct.std::_Rb_tree_node_base", i64 }
%"struct.std::_Rb_tree_node_base" = type { i32, ptr, ptr, ptr }
%"class.QuantLib::Date" = type { i64 }
%"class.boost::detail::shared_count" = type { ptr }
%"class.QuantLib::Observable" = type { ptr, %"class.std::set.0" }
%"class.QuantLib::SimpleQuote" = type { %"class.QuantLib::Quote.base", double, %"class.QuantLib::Observable" }
%"class.QuantLib::Quote.base" = type { ptr }
%"class.std::map.44" = type { %"class.std::_Rb_tree.45" }
%"class.std::_Rb_tree.45" = type { %"struct.std::_Rb_tree<std::__cxx11::basic_string<char>, std::pair<const std::__cxx11::basic_string<char>, boost::any>, std::_Select1st<std::pair<const std::__cxx11::basic_string<char>, boost::any>>, std::less<std::__cxx11::basic_string<char>>>::_Rb_tree_impl" }
%"struct.std::_Rb_tree<std::__cxx11::basic_string<char>, std::pair<const std::__cxx11::basic_string<char>, boost::any>, std::_Select1st<std::pair<const std::__cxx11::basic_string<char>, boost::any>>, std::less<std::__cxx11::basic_string<char>>>::_Rb_tree_impl" = type { [8 x i8], %"struct.std::_Rb_tree_header" }
%"class.boost::shared_ptr.50" = type { ptr, %"class.boost::detail::shared_count" }
%"class.QuantLib::(anonymous namespace)::ImpliedCapVolHelper" = type { %"class.boost::shared_ptr.50", %"class.QuantLib::Handle", double, %"class.boost::shared_ptr.68", ptr }
%"class.QuantLib::Handle" = type { %"class.boost::shared_ptr.67" }
%"class.boost::shared_ptr.67" = type { ptr, %"class.boost::detail::shared_count" }
%"class.boost::shared_ptr.68" = type { ptr, %"class.boost::detail::shared_count" }
%"class.QuantLib::Instrument::results" = type { %"class.QuantLib::PricingEngine::results", double, double, %"class.QuantLib::Date", %"class.std::map.44" }
%"class.QuantLib::PricingEngine::results" = type { ptr }

@.str.32 = private unnamed_addr constant [8 x i8] c"px != 0\00", align 1
@__PRETTY_FUNCTION__._ZNK5boost10shared_ptrIN8QuantLib13PricingEngineEEptEv = private unnamed_addr constant [143 x i8] c"typename boost::detail::sp_member_access<T>::type boost::shared_ptr<QuantLib::PricingEngine>::operator->() const [T = QuantLib::PricingEngine]\00", align 1
@.str.33 = private unnamed_addr constant [102 x i8] c"generated/home/dtcxzyw/WorkSpace/SDK/vcpkg/installed/x64-linux/include/boost/smart_ptr/shared_ptr.hpp\00", align 1
@__PRETTY_FUNCTION__._ZNK5boost10shared_ptrIN8QuantLib11SimpleQuoteEEptEv = private unnamed_addr constant [139 x i8] c"typename boost::detail::sp_member_access<T>::type boost::shared_ptr<QuantLib::SimpleQuote>::operator->() const [T = QuantLib::SimpleQuote]\00", align 1

; Function Attrs: mustprogress uwtable
define linkonce_odr noundef ptr @_ZNK5boost10shared_ptrIN8QuantLib13PricingEngineEEptEv(ptr noundef nonnull align 8 dereferenceable(16) %this) #2 comdat align 2 {
entry:
  %this.addr = alloca ptr, align 8
  store ptr %this, ptr %this.addr, align 8, !tbaa !3
  %this1 = load ptr, ptr %this.addr, align 8
  %px = getelementptr inbounds nuw %"class.boost::shared_ptr.50", ptr %this1, i32 0, i32 0
  %0 = load ptr, ptr %px, align 8, !tbaa !191
  %cmp = icmp ne ptr %0, null
  %lnot = xor i1 %cmp, true
  %lnot2 = xor i1 %lnot, true
  %conv = zext i1 %lnot2 to i64
  %expval = call i64 @llvm.expect.i64(i64 %conv, i64 1)
  %tobool = icmp ne i64 %expval, 0
  br i1 %tobool, label %cond.true, label %cond.false

cond.true:                                        ; preds = %entry
  br label %cond.end

cond.false:                                       ; preds = %entry
  call void @_ZN5boost16assertion_failedEPKcS1_S1_l(ptr noundef @.str.32, ptr noundef @__PRETTY_FUNCTION__._ZNK5boost10shared_ptrIN8QuantLib13PricingEngineEEptEv, ptr noundef @.str.33, i64 noundef 784)
  br label %cond.end

cond.end:                                         ; preds = %cond.false, %cond.true
  %px3 = getelementptr inbounds nuw %"class.boost::shared_ptr.50", ptr %this1, i32 0, i32 0
  %1 = load ptr, ptr %px3, align 8, !tbaa !191
  ret ptr %1
}

; Function Attrs: inlinehint mustprogress uwtable
define linkonce_odr noundef double @_ZN8QuantLib11SimpleQuote8setValueEd(ptr noundef nonnull align 8 dereferenceable(16) %this, double noundef %value) #4 comdat align 2 {
entry:
  %this.addr = alloca ptr, align 8
  %value.addr = alloca double, align 8
  %diff = alloca double, align 8
  store ptr %this, ptr %this.addr, align 8, !tbaa !3
  store double %value, ptr %value.addr, align 8, !tbaa !90
  %this1 = load ptr, ptr %this.addr, align 8
  call void @llvm.lifetime.start.p0(i64 8, ptr %diff) #14
  %0 = load double, ptr %value.addr, align 8, !tbaa !90
  %value_ = getelementptr inbounds nuw %"class.QuantLib::SimpleQuote", ptr %this1, i32 0, i32 1
  %1 = load double, ptr %value_, align 8, !tbaa !24
  %sub = fsub double %0, %1
  store double %sub, ptr %diff, align 8, !tbaa !90
  %2 = load double, ptr %diff, align 8, !tbaa !90
  %cmp = fcmp une double %2, 0.000000e+00
  br i1 %cmp, label %if.then, label %if.end

if.then:                                          ; preds = %entry
  %3 = load double, ptr %value.addr, align 8, !tbaa !90
  %value_2 = getelementptr inbounds nuw %"class.QuantLib::SimpleQuote", ptr %this1, i32 0, i32 1
  store double %3, ptr %value_2, align 8, !tbaa !24
  %vtable = load ptr, ptr %this1, align 8, !tbaa !20
  %vbase.offset.ptr = getelementptr i8, ptr %vtable, i64 -24
  %vbase.offset = load i64, ptr %vbase.offset.ptr, align 8
  %add.ptr = getelementptr inbounds i8, ptr %this1, i64 %vbase.offset
  call void @_ZN8QuantLib10Observable15notifyObserversEv(ptr noundef nonnull align 8 dereferenceable(56) %add.ptr)
  br label %if.end

if.end:                                           ; preds = %if.then, %entry
  %4 = load double, ptr %diff, align 8, !tbaa !90
  call void @llvm.lifetime.end.p0(i64 8, ptr %diff) #14
  ret double %4
}

; Function Attrs: mustprogress uwtable
define linkonce_odr noundef ptr @_ZNK5boost10shared_ptrIN8QuantLib11SimpleQuoteEEptEv(ptr noundef nonnull align 8 dereferenceable(16) %this) #2 comdat align 2 {
entry:
  %this.addr = alloca ptr, align 8
  store ptr %this, ptr %this.addr, align 8, !tbaa !3
  %this1 = load ptr, ptr %this.addr, align 8
  %px = getelementptr inbounds nuw %"class.boost::shared_ptr.68", ptr %this1, i32 0, i32 0
  %0 = load ptr, ptr %px, align 8, !tbaa !192
  %cmp = icmp ne ptr %0, null
  %lnot = xor i1 %cmp, true
  %lnot2 = xor i1 %lnot, true
  %conv = zext i1 %lnot2 to i64
  %expval = call i64 @llvm.expect.i64(i64 %conv, i64 1)
  %tobool = icmp ne i64 %expval, 0
  br i1 %tobool, label %cond.true, label %cond.false

cond.true:                                        ; preds = %entry
  br label %cond.end

cond.false:                                       ; preds = %entry
  call void @_ZN5boost16assertion_failedEPKcS1_S1_l(ptr noundef @.str.32, ptr noundef @__PRETTY_FUNCTION__._ZNK5boost10shared_ptrIN8QuantLib11SimpleQuoteEEptEv, ptr noundef @.str.33, i64 noundef 784)
  br label %cond.end

cond.end:                                         ; preds = %cond.false, %cond.true
  %px3 = getelementptr inbounds nuw %"class.boost::shared_ptr.68", ptr %this1, i32 0, i32 0
  %1 = load ptr, ptr %px3, align 8, !tbaa !192
  ret ptr %1
}

; Function Attrs: mustprogress uwtable
define internal noundef double @_ZNK8QuantLib12_GLOBAL__N_119ImpliedCapVolHelperclEd(ptr noundef nonnull align 8 dereferenceable(64) %this, double noundef %x) #2 align 2 {
entry:
  %this.addr = alloca ptr, align 8
  %x.addr = alloca double, align 8
  store ptr %this, ptr %this.addr, align 8, !tbaa !3
  store double %x, ptr %x.addr, align 8, !tbaa !90
  %this1 = load ptr, ptr %this.addr, align 8
  %0 = load double, ptr %x.addr, align 8, !tbaa !90
  %vol_ = getelementptr inbounds nuw %"class.QuantLib::(anonymous namespace)::ImpliedCapVolHelper", ptr %this1, i32 0, i32 3
  %call = call noundef ptr @_ZNK5boost10shared_ptrIN8QuantLib11SimpleQuoteEEptEv(ptr noundef nonnull align 8 dereferenceable(16) %vol_)
  %vtable = load ptr, ptr %call, align 8, !tbaa !20
  %vfn = getelementptr inbounds ptr, ptr %vtable, i64 2
  %1 = load ptr, ptr %vfn, align 8
  %call2 = call noundef double %1(ptr noundef nonnull align 8 dereferenceable(16) %call)
  %cmp = fcmp une double %0, %call2
  br i1 %cmp, label %if.then, label %if.end

if.then:                                          ; preds = %entry
  %vol_3 = getelementptr inbounds nuw %"class.QuantLib::(anonymous namespace)::ImpliedCapVolHelper", ptr %this1, i32 0, i32 3
  %call4 = call noundef ptr @_ZNK5boost10shared_ptrIN8QuantLib11SimpleQuoteEEptEv(ptr noundef nonnull align 8 dereferenceable(16) %vol_3)
  %2 = load double, ptr %x.addr, align 8, !tbaa !90
  %call5 = call noundef double @_ZN8QuantLib11SimpleQuote8setValueEd(ptr noundef nonnull align 8 dereferenceable(16) %call4, double noundef %2)
  %engine_ = getelementptr inbounds nuw %"class.QuantLib::(anonymous namespace)::ImpliedCapVolHelper", ptr %this1, i32 0, i32 0
  %call6 = call noundef ptr @_ZNK5boost10shared_ptrIN8QuantLib13PricingEngineEEptEv(ptr noundef nonnull align 8 dereferenceable(16) %engine_)
  %vtable7 = load ptr, ptr %call6, align 8, !tbaa !20
  %vfn8 = getelementptr inbounds ptr, ptr %vtable7, i64 5
  %3 = load ptr, ptr %vfn8, align 8
  call void %3(ptr noundef nonnull align 8 dereferenceable(56) %call6)
  br label %if.end

if.end:                                           ; preds = %if.then, %entry
  %results_ = getelementptr inbounds nuw %"class.QuantLib::(anonymous namespace)::ImpliedCapVolHelper", ptr %this1, i32 0, i32 4
  %4 = load ptr, ptr %results_, align 8, !tbaa !118
  %value = getelementptr inbounds nuw %"class.QuantLib::Instrument::results", ptr %4, i32 0, i32 1
  %5 = load double, ptr %value, align 8, !tbaa !131
  %targetValue_ = getelementptr inbounds nuw %"class.QuantLib::(anonymous namespace)::ImpliedCapVolHelper", ptr %this1, i32 0, i32 2
  %6 = load double, ptr %targetValue_, align 8, !tbaa !113
  %sub = fsub double %5, %6
  ret double %sub
}